(igame
Game
p0
(dp1
S'map'
p2
ccopy_reg
_reconstructor
p3
(cmap
Map
p4
cdill._dill
_load_type
p5
(S'ObjectType'
p6
tp7
Rp8
Ntp9
Rp10
(dp11
S'IDcounter'
p12
I85
sS'tiles'
p13
(lp14
g3
(cmap
Tile
p15
g8
Ntp16
Rp17
(dp18
g2
g10
sS'children'
p19
(lp20
sS'type'
p21
g15
sS'location'
p22
(I-4
I-4
tp23
sS'id'
p24
I0
sbag3
(g15
g8
Ntp25
Rp26
(dp27
g2
g10
sg19
(lp28
sg21
g15
sg22
(I-4
I-3
tp29
sg24
I1
sbag3
(g15
g8
Ntp30
Rp31
(dp32
g2
g10
sg19
(lp33
sg21
g15
sg22
(I-4
I-2
tp34
sg24
I2
sbag3
(g15
g8
Ntp35
Rp36
(dp37
g2
g10
sg19
(lp38
sg21
g15
sg22
(I-4
I-1
tp39
sg24
I3
sbag3
(g15
g8
Ntp40
Rp41
(dp42
g2
g10
sg19
(lp43
sg21
g15
sg22
(I-4
I0
tp44
sg24
I4
sbag3
(g15
g8
Ntp45
Rp46
(dp47
g2
g10
sg19
(lp48
sg21
g15
sg22
(I-4
I1
tp49
sg24
I5
sbag3
(g15
g8
Ntp50
Rp51
(dp52
g2
g10
sg19
(lp53
sg21
g15
sg22
(I-4
I2
tp54
sg24
I6
sbag3
(g15
g8
Ntp55
Rp56
(dp57
g2
g10
sg19
(lp58
sg21
g15
sg22
(I-4
I3
tp59
sg24
I7
sbag3
(g15
g8
Ntp60
Rp61
(dp62
g2
g10
sg19
(lp63
sg21
g15
sg22
(I-4
I4
tp64
sg24
I8
sbag3
(g15
g8
Ntp65
Rp66
(dp67
g2
g10
sg19
(lp68
sg21
g15
sg22
(I-3
I-4
tp69
sg24
I9
sbag3
(g15
g8
Ntp70
Rp71
(dp72
g2
g10
sg19
(lp73
sg21
g15
sg22
(I-3
I-3
tp74
sg24
I10
sbag3
(g15
g8
Ntp75
Rp76
(dp77
g2
g10
sg19
(lp78
sg21
g15
sg22
(I-3
I-2
tp79
sg24
I11
sbag3
(g15
g8
Ntp80
Rp81
(dp82
g2
g10
sg19
(lp83
sg21
g15
sg22
(I-3
I-1
tp84
sg24
I12
sbag3
(g15
g8
Ntp85
Rp86
(dp87
g2
g10
sg19
(lp88
sg21
g15
sg22
(I-3
I0
tp89
sg24
I13
sbag3
(g15
g8
Ntp90
Rp91
(dp92
g2
g10
sg19
(lp93
sg21
g15
sg22
(I-3
I1
tp94
sg24
I14
sbag3
(g15
g8
Ntp95
Rp96
(dp97
g2
g10
sg19
(lp98
sg21
g15
sg22
(I-3
I2
tp99
sg24
I15
sbag3
(g15
g8
Ntp100
Rp101
(dp102
g2
g10
sg19
(lp103
sg21
g15
sg22
(I-3
I3
tp104
sg24
I16
sbag3
(g15
g8
Ntp105
Rp106
(dp107
g2
g10
sg19
(lp108
sg21
g15
sg22
(I-3
I4
tp109
sg24
I17
sbag3
(g15
g8
Ntp110
Rp111
(dp112
g2
g10
sg19
(lp113
sg21
g15
sg22
(I-2
I-4
tp114
sg24
I18
sbag3
(g15
g8
Ntp115
Rp116
(dp117
g2
g10
sg19
(lp118
sg21
g15
sg22
(I-2
I-3
tp119
sg24
I19
sbag3
(g15
g8
Ntp120
Rp121
(dp122
g2
g10
sg19
(lp123
sg21
g15
sg22
(I-2
I-2
tp124
sg24
I20
sbag3
(g15
g8
Ntp125
Rp126
(dp127
g2
g10
sg19
(lp128
sg21
g15
sg22
(I-2
I-1
tp129
sg24
I21
sbag3
(g15
g8
Ntp130
Rp131
(dp132
g2
g10
sg19
(lp133
sg21
g15
sg22
(I-2
I0
tp134
sg24
I22
sbag3
(g15
g8
Ntp135
Rp136
(dp137
g2
g10
sg19
(lp138
sg21
g15
sg22
(I-2
I1
tp139
sg24
I23
sbag3
(g15
g8
Ntp140
Rp141
(dp142
g2
g10
sg19
(lp143
sg21
g15
sg22
(I-2
I2
tp144
sg24
I24
sbag3
(g15
g8
Ntp145
Rp146
(dp147
g2
g10
sg19
(lp148
sg21
g15
sg22
(I-2
I3
tp149
sg24
I25
sbag3
(g15
g8
Ntp150
Rp151
(dp152
g2
g10
sg19
(lp153
sg21
g15
sg22
(I-2
I4
tp154
sg24
I26
sbag3
(g15
g8
Ntp155
Rp156
(dp157
g2
g10
sg19
(lp158
sg21
g15
sg22
(I-1
I-4
tp159
sg24
I27
sbag3
(g15
g8
Ntp160
Rp161
(dp162
g2
g10
sg19
(lp163
sg21
g15
sg22
(I-1
I-3
tp164
sg24
I28
sbag3
(g15
g8
Ntp165
Rp166
(dp167
g2
g10
sg19
(lp168
sg21
g15
sg22
(I-1
I-2
tp169
sg24
I29
sbag3
(g15
g8
Ntp170
Rp171
(dp172
g2
g10
sg19
(lp173
sg21
g15
sg22
(I-1
I-1
tp174
sg24
I30
sbag3
(g15
g8
Ntp175
Rp176
(dp177
g2
g10
sg19
(lp178
sg21
g15
sg22
(I-1
I0
tp179
sg24
I31
sbag3
(g15
g8
Ntp180
Rp181
(dp182
g2
g10
sg19
(lp183
sg21
g15
sg22
(I-1
I1
tp184
sg24
I32
sbag3
(g15
g8
Ntp185
Rp186
(dp187
g2
g10
sg19
(lp188
sg21
g15
sg22
(I-1
I2
tp189
sg24
I33
sbag3
(g15
g8
Ntp190
Rp191
(dp192
g2
g10
sg19
(lp193
sg21
g15
sg22
(I-1
I3
tp194
sg24
I34
sbag3
(g15
g8
Ntp195
Rp196
(dp197
g2
g10
sg19
(lp198
sg21
g15
sg22
(I-1
I4
tp199
sg24
I35
sbag3
(g15
g8
Ntp200
Rp201
(dp202
g2
g10
sg19
(lp203
sg21
g15
sg22
(I0
I-4
tp204
sg24
I36
sbag3
(g15
g8
Ntp205
Rp206
(dp207
g2
g10
sg19
(lp208
sg21
g15
sg22
(I0
I-3
tp209
sg24
I37
sbag3
(g15
g8
Ntp210
Rp211
(dp212
g2
g10
sg19
(lp213
sg21
g15
sg22
(I0
I-2
tp214
sg24
I38
sbag3
(g15
g8
Ntp215
Rp216
(dp217
g2
g10
sg19
(lp218
sg21
g15
sg22
(I0
I-1
tp219
sg24
I39
sbag3
(g15
g8
Ntp220
Rp221
(dp222
g2
g10
sg19
(lp223
g3
(cmap
Land
p224
g8
Ntp225
Rp226
(dp227
S'effectivedp'
p228
F1.0
sS'sustainCurrent'
p229
F4.0
sS'owned'
p230
(lp231
sS'owner'
p232
(iplayer
Player
p233
(dp234
S'uber'
p235
I00
sS'name'
p236
S'Anonymous'
p237
sS'gameIndex'
p238
I-1
sS'messages'
p239
(lp240
sS'secret'
p241
S'a'
p242
sg230
(lp243
g226
ag3
(cmap
Generator
p244
g8
Ntp245
Rp246
(dp247
g228
F4.0
sg229
I0
sg230
(lp248
sg232
g233
sg24
I84
sS'living'
p249
F0.0
sS'UID'
p250
I3
sg19
(lp251
sS'sustain'
p252
I0
sg21
S'Generator'
p253
sS'hostileExceptions'
p254
(lp255
sg2
g10
sS'description'
p256
S''
p257
sS'parent'
p258
g226
sS'sayOwner'
p259
(lp260
g233
ag233
asS'moveSpeed'
p261
I0
sS'game'
p262
g0
sS'basedp'
p263
F4.0
sS'currentSustain'
p264
I0
sS'modifiers'
p265
(lp266
sg236
S'Generator84'
p267
sS'moveActions'
p268
I0
sS'dpType'
p269
S'b'
p270
sS'defaultHostile'
p271
I00
sS'currentDP'
p272
(dp273
g270
F1.0
ssS'acceptOrders'
p274
(lp275
g233
asbasS'orders'
p276
(lp277
sg262
g0
sS'baseDP'
p278
(dp279
S'generic'
p280
I4
sS'c'
p281
I1
sS'b'
p282
I4
sS'd'
p283
I1
ssS'interpreter'
p284
(iinterpreter
Interpreter
p285
(dp286
S'player'
p287
g233
sg262
g0
sbsg272
(dp288
g280
I4
sg281
I1
sg282
I4
sg283
I1
ssS'domainNames'
p289
(lp290
g282
ag281
ag283
asg24
I82
sS'interpret'
p291
g5
(S'MethodType'
p292
tp293
Rp294
(cdill._dill
_create_function
p295
(g5
(S'CodeType'
p296
tp297
Rp298
(I2
I7
I5
I67
S'|\x01\x00\\\x03\x00}\x02\x00}\x03\x00}\x04\x00|\x02\x00d\x01\x00k\x02\x00r2\x00|\x04\x00d\x02\x00\x19|\x00\x00j\x00\x00_\x01\x00d\x02\x00g\x01\x00S|\x02\x00d\x03\x00k\x02\x00r}\x00|\x03\x00d\x02\x00k\x02\x00r}\x00|\x00\x00j\x02\x00j\x03\x00|\x00\x00j\x00\x00t\x04\x00|\x04\x00d\x02\x00\x19\x83\x01\x00|\x04\x00d\x04\x00\x19\x83\x03\x00}\x05\x00|\x05\x00g\x01\x00Sn\x00\x00|\x02\x00d\x05\x00k\x02\x00r\xc2\x00|\x00\x00j\x02\x00j\x05\x00j\x06\x00t\x04\x00|\x04\x00d\x02\x00\x19\x83\x01\x00\x83\x01\x00}\x06\x00|\x06\x00j\x07\x00|\x00\x00j\x00\x00|\x03\x00|\x04\x00d\x04\x00\x1f\x83\x03\x00S|\x02\x00d\x06\x00k\x02\x00r\xde\x00|\x00\x00j\x08\x00|\x03\x00|\x04\x00\x83\x02\x00Sd\x00\x00S'
p299
(NI40
I0
I50
I1
I53
I60
tp300
(g287
g236
g262
S'sendMessage'
p301
S'int'
p302
g2
S'getEntity'
p303
S'__order__'
p304
S'create'
p305
tp306
(S'self'
p307
S'order'
p308
S'code'
p309
S'subcode'
p310
S'param'
p311
S'result'
p312
S'entity'
p313
tp314
S'/home/ben/projects/godsforge/server/interpreter.py'
p315
S'interpret'
p316
I8
S'\x00\x01\x0f\x03\x0c\x01\x10\x01\x07\x02\x0c\x01\x0c\x01)\x01\n\x01\x0c\x01\x1f\x01\x1a\x02\x0c\x01'
p317
(t(ttp318
Rp319
cinterpreter
__dict__
g316
NN(dp320
tp321
Rp322
g285
cinterpreter
Interpreter
p323
tp324
Rp325
sg250
I1
sbsg24
I83
sg249
F0.0
sg250
I2
sg19
(lp326
g246
asg252
F4.0
sg21
S'Land'
p327
sg254
(lp328
sg2
g10
sg256
g257
sg258
g221
sg259
(lp329
g233
ag233
asg261
I0
sg262
g0
sg263
F1.0
sg264
I0
sg265
(lp330
sg236
S'Land (0, 0)'
p331
sg268
I0
sg271
I00
sg272
(dp332
sg274
(lp333
g233
asbasg21
g15
sg22
(I0
I0
tp334
sg24
I40
sbag3
(g15
g8
Ntp335
Rp336
(dp337
g2
g10
sg19
(lp338
sg21
g15
sg22
(I0
I1
tp339
sg24
I41
sbag3
(g15
g8
Ntp340
Rp341
(dp342
g2
g10
sg19
(lp343
sg21
g15
sg22
(I0
I2
tp344
sg24
I42
sbag3
(g15
g8
Ntp345
Rp346
(dp347
g2
g10
sg19
(lp348
sg21
g15
sg22
(I0
I3
tp349
sg24
I43
sbag3
(g15
g8
Ntp350
Rp351
(dp352
g2
g10
sg19
(lp353
sg21
g15
sg22
(I0
I4
tp354
sg24
I44
sbag3
(g15
g8
Ntp355
Rp356
(dp357
g2
g10
sg19
(lp358
sg21
g15
sg22
(I1
I-4
tp359
sg24
I45
sbag3
(g15
g8
Ntp360
Rp361
(dp362
g2
g10
sg19
(lp363
sg21
g15
sg22
(I1
I-3
tp364
sg24
I46
sbag3
(g15
g8
Ntp365
Rp366
(dp367
g2
g10
sg19
(lp368
sg21
g15
sg22
(I1
I-2
tp369
sg24
I47
sbag3
(g15
g8
Ntp370
Rp371
(dp372
g2
g10
sg19
(lp373
sg21
g15
sg22
(I1
I-1
tp374
sg24
I48
sbag3
(g15
g8
Ntp375
Rp376
(dp377
g2
g10
sg19
(lp378
sg21
g15
sg22
(I1
I0
tp379
sg24
I49
sbag3
(g15
g8
Ntp380
Rp381
(dp382
g2
g10
sg19
(lp383
sg21
g15
sg22
(I1
I1
tp384
sg24
I50
sbag3
(g15
g8
Ntp385
Rp386
(dp387
g2
g10
sg19
(lp388
sg21
g15
sg22
(I1
I2
tp389
sg24
I51
sbag3
(g15
g8
Ntp390
Rp391
(dp392
g2
g10
sg19
(lp393
sg21
g15
sg22
(I1
I3
tp394
sg24
I52
sbag3
(g15
g8
Ntp395
Rp396
(dp397
g2
g10
sg19
(lp398
sg21
g15
sg22
(I1
I4
tp399
sg24
I53
sbag3
(g15
g8
Ntp400
Rp401
(dp402
g2
g10
sg19
(lp403
sg21
g15
sg22
(I2
I-4
tp404
sg24
I54
sbag3
(g15
g8
Ntp405
Rp406
(dp407
g2
g10
sg19
(lp408
sg21
g15
sg22
(I2
I-3
tp409
sg24
I55
sbag3
(g15
g8
Ntp410
Rp411
(dp412
g2
g10
sg19
(lp413
sg21
g15
sg22
(I2
I-2
tp414
sg24
I56
sbag3
(g15
g8
Ntp415
Rp416
(dp417
g2
g10
sg19
(lp418
sg21
g15
sg22
(I2
I-1
tp419
sg24
I57
sbag3
(g15
g8
Ntp420
Rp421
(dp422
g2
g10
sg19
(lp423
sg21
g15
sg22
(I2
I0
tp424
sg24
I58
sbag3
(g15
g8
Ntp425
Rp426
(dp427
g2
g10
sg19
(lp428
sg21
g15
sg22
(I2
I1
tp429
sg24
I59
sbag3
(g15
g8
Ntp430
Rp431
(dp432
g2
g10
sg19
(lp433
sg21
g15
sg22
(I2
I2
tp434
sg24
I60
sbag3
(g15
g8
Ntp435
Rp436
(dp437
g2
g10
sg19
(lp438
sg21
g15
sg22
(I2
I3
tp439
sg24
I61
sbag3
(g15
g8
Ntp440
Rp441
(dp442
g2
g10
sg19
(lp443
sg21
g15
sg22
(I2
I4
tp444
sg24
I62
sbag3
(g15
g8
Ntp445
Rp446
(dp447
g2
g10
sg19
(lp448
sg21
g15
sg22
(I3
I-4
tp449
sg24
I63
sbag3
(g15
g8
Ntp450
Rp451
(dp452
g2
g10
sg19
(lp453
sg21
g15
sg22
(I3
I-3
tp454
sg24
I64
sbag3
(g15
g8
Ntp455
Rp456
(dp457
g2
g10
sg19
(lp458
sg21
g15
sg22
(I3
I-2
tp459
sg24
I65
sbag3
(g15
g8
Ntp460
Rp461
(dp462
g2
g10
sg19
(lp463
sg21
g15
sg22
(I3
I-1
tp464
sg24
I66
sbag3
(g15
g8
Ntp465
Rp466
(dp467
g2
g10
sg19
(lp468
sg21
g15
sg22
(I3
I0
tp469
sg24
I67
sbag3
(g15
g8
Ntp470
Rp471
(dp472
g2
g10
sg19
(lp473
sg21
g15
sg22
(I3
I1
tp474
sg24
I68
sbag3
(g15
g8
Ntp475
Rp476
(dp477
g2
g10
sg19
(lp478
sg21
g15
sg22
(I3
I2
tp479
sg24
I69
sbag3
(g15
g8
Ntp480
Rp481
(dp482
g2
g10
sg19
(lp483
sg21
g15
sg22
(I3
I3
tp484
sg24
I70
sbag3
(g15
g8
Ntp485
Rp486
(dp487
g2
g10
sg19
(lp488
sg21
g15
sg22
(I3
I4
tp489
sg24
I71
sbag3
(g15
g8
Ntp490
Rp491
(dp492
g2
g10
sg19
(lp493
sg21
g15
sg22
(I4
I-4
tp494
sg24
I72
sbag3
(g15
g8
Ntp495
Rp496
(dp497
g2
g10
sg19
(lp498
sg21
g15
sg22
(I4
I-3
tp499
sg24
I73
sbag3
(g15
g8
Ntp500
Rp501
(dp502
g2
g10
sg19
(lp503
sg21
g15
sg22
(I4
I-2
tp504
sg24
I74
sbag3
(g15
g8
Ntp505
Rp506
(dp507
g2
g10
sg19
(lp508
sg21
g15
sg22
(I4
I-1
tp509
sg24
I75
sbag3
(g15
g8
Ntp510
Rp511
(dp512
g2
g10
sg19
(lp513
sg21
g15
sg22
(I4
I0
tp514
sg24
I76
sbag3
(g15
g8
Ntp515
Rp516
(dp517
g2
g10
sg19
(lp518
sg21
g15
sg22
(I4
I1
tp519
sg24
I77
sbag3
(g15
g8
Ntp520
Rp521
(dp522
g2
g10
sg19
(lp523
sg21
g15
sg22
(I4
I2
tp524
sg24
I78
sbag3
(g15
g8
Ntp525
Rp526
(dp527
g2
g10
sg19
(lp528
sg21
g15
sg22
(I4
I3
tp529
sg24
I79
sbag3
(g15
g8
Ntp530
Rp531
(dp532
g2
g10
sg19
(lp533
sg21
g15
sg22
(I4
I4
tp534
sg24
I80
sbasS'maxY'
p535
I4
sS'minY'
p536
I-4
sS'maxX'
p537
I4
sS'minX'
p538
I-4
sS'entities'
p539
(lp540
g17
ag26
ag31
ag36
ag41
ag46
ag51
ag56
ag61
ag66
ag71
ag76
ag81
ag86
ag91
ag96
ag101
ag106
ag111
ag116
ag121
ag126
ag131
ag136
ag141
ag146
ag151
ag156
ag161
ag166
ag171
ag176
ag181
ag186
ag191
ag196
ag201
ag206
ag211
ag216
ag221
ag336
ag341
ag346
ag351
ag356
ag361
ag366
ag371
ag376
ag381
ag386
ag391
ag396
ag401
ag406
ag411
ag416
ag421
ag426
ag431
ag436
ag441
ag446
ag451
ag456
ag461
ag466
ag471
ag476
ag481
ag486
ag491
ag496
ag501
ag506
ag511
ag516
ag521
ag526
ag531
a(iplayer
Player
p541
(dp542
g235
I01
sg236
S'Game Master'
p543
sg276
(lp544
sg238
I-1
sg239
(lp545
sg241
S'insecure'
p546
sg230
(lp547
sg24
I81
sg262
g0
sg278
(dp548
g280
Finf
ssg284
(iinterpreter
Interpreter
p549
(dp550
g287
g541
sg262
g0
sbsg272
(dp551
g280
Finf
ssg289
(lp552
g280
ag280
ag280
asg19
(lp553
sg291
g294
(g322
g549
g323
tp554
Rp555
sg250
I0
sbag233
ag226
ag246
asg262
g0
sbsS'story'
p556
g257
sg539
(lp557
g541
ag233
ag226
ag246
asS'started'
p558
I01
sS'masterPlayer'
p559
g541
sS'UIDcounter'
p560
I4
sS'votes'
p561
(dp562
g233
I00
ssS'maxPlayers'
p563
I6
sS'players'
p564
(lp565
g541
ag233
asS'races'
p566
(lp567
sS'closed'
p568
I01
sg276
(lp569
sS'cycle'
p570
I1
sb.